; Function Attrs: nounwind uwtable
define internal noundef i32 @_make_exclusive_config(ptr noundef %0, ptr noundef %1) #0 {
  %3 = alloca ptr, align 8
  call void @llvm.lifetime.start.p0(i64 8, ptr nonnull %3) #10
  store ptr null, ptr %3, align 8
  %4 = call i32 @list_for_each(ptr noundef %0, ptr noundef nonnull @_list_make_str, ptr noundef nonnull %3) #10
  %5 = load ptr, ptr %3, align 8
  call void @llvm.lifetime.end.p0(i64 8, ptr nonnull %3) #10
  call void @add_key_pair_own(ptr noundef %1, ptr noundef nonnull @.str.21, ptr noundef %5) #10
  ret i32 0
}